target datalayout = "e-m:e-p270:32:32-p271:32:32-p272:64:64-i64:64-i128:128-f80:128-n8:16:32:64-S128"
target triple = "x86_64-pc-linux-gnu"

%"class.llvm::StringRef" = type { ptr, i64 }
%"struct.std::_Rb_tree_header" = type { %"struct.std::_Rb_tree_node_base", i64 }
%"struct.std::_Rb_tree_node_base" = type { i32, ptr, ptr, ptr }
%"class.llvm::sampleprof::FunctionId" = type { ptr, i64 }
%"class.llvm::sampleprof::FunctionSamples" = type { ptr, i64, %"class.llvm::sampleprof::SampleContext", i64, i64, %"class.std::map.492", %"class.std::map.497", ptr }
%"class.llvm::sampleprof::SampleContext" = type { %"class.llvm::sampleprof::FunctionId", %"class.llvm::ArrayRef", i32, i32 }
%"class.llvm::ArrayRef" = type { ptr, i64 }
%"class.std::map.492" = type { %"class.std::_Rb_tree.493" }
%"class.std::_Rb_tree.493" = type { %"struct.std::_Rb_tree<llvm::sampleprof::LineLocation, std::pair<const llvm::sampleprof::LineLocation, llvm::sampleprof::SampleRecord>, std::_Select1st<std::pair<const llvm::sampleprof::LineLocation, llvm::sampleprof::SampleRecord>>, std::less<llvm::sampleprof::LineLocation>>::_Rb_tree_impl" }
%"struct.std::_Rb_tree<llvm::sampleprof::LineLocation, std::pair<const llvm::sampleprof::LineLocation, llvm::sampleprof::SampleRecord>, std::_Select1st<std::pair<const llvm::sampleprof::LineLocation, llvm::sampleprof::SampleRecord>>, std::less<llvm::sampleprof::LineLocation>>::_Rb_tree_impl" = type { [8 x i8], %"struct.std::_Rb_tree_header" }
%"class.std::map.497" = type { %"class.std::_Rb_tree.498" }
%"class.std::_Rb_tree.498" = type { %"struct.std::_Rb_tree<llvm::sampleprof::LineLocation, std::pair<const llvm::sampleprof::LineLocation, std::map<llvm::sampleprof::FunctionId, llvm::sampleprof::FunctionSamples>>, std::_Select1st<std::pair<const llvm::sampleprof::LineLocation, std::map<llvm::sampleprof::FunctionId, llvm::sampleprof::FunctionSamples>>>, std::less<llvm::sampleprof::LineLocation>>::_Rb_tree_impl" }
%"struct.std::_Rb_tree<llvm::sampleprof::LineLocation, std::pair<const llvm::sampleprof::LineLocation, std::map<llvm::sampleprof::FunctionId, llvm::sampleprof::FunctionSamples>>, std::_Select1st<std::pair<const llvm::sampleprof::LineLocation, std::map<llvm::sampleprof::FunctionId, llvm::sampleprof::FunctionSamples>>>, std::less<llvm::sampleprof::LineLocation>>::_Rb_tree_impl" = type { [8 x i8], %"struct.std::_Rb_tree_header" }
%"class.llvm::MD5" = type { %struct.anon.735 }
%struct.anon.735 = type { i32, i32, i32, i32, i32, i32, [64 x i8], [16 x i32] }
%"struct.llvm::MD5::MD5Result" = type { %"struct.std::array" }
%"struct.std::array" = type { [16 x i8] }
%"struct.llvm::support::detail::packed_endian_specific_integral" = type { %struct.anon.736 }
%struct.anon.736 = type { [8 x i8] }
%"struct.(anonymous namespace)::InlineCandidate" = type { ptr, ptr, i64, float }

; Function Attrs: mustprogress nounwind uwtable
define linkonce_odr hidden noundef i64 @_ZN4llvm8byteswapImvEET_S1_(i64 noundef %0) #1 comdat {
  %2 = alloca i64, align 8
  %3 = alloca i64, align 8
  store i64 %0, ptr %2, align 8
  %4 = load i64, ptr %2, align 8
  store i64 %4, ptr %3, align 8
  %5 = load i64, ptr %3, align 8
  %6 = call i64 @llvm.bswap.i64(i64 %5)
  ret i64 %6
}

; Function Attrs: mustprogress nounwind uwtable
define linkonce_odr hidden noundef i64 @_ZN4llvm3sys15getSwappedBytesEm(i64 noundef %0) #1 comdat {
  %2 = alloca i64, align 8
  store i64 %0, ptr %2, align 8
  %3 = load i64, ptr %2, align 8
  %4 = call noundef i64 @_ZN4llvm8byteswapImvEET_S1_(i64 noundef %3) #2
  ret i64 %4
}

; Function Attrs: mustprogress nounwind uwtable
define linkonce_odr hidden void @_ZN4llvm3sys13swapByteOrderImEEvRT_(ptr noundef nonnull align 8 dereferenceable(8) %0) #1 comdat {
  %2 = alloca ptr, align 8
  store ptr %0, ptr %2, align 8
  %3 = load ptr, ptr %2, align 8
  %4 = load i64, ptr %3, align 8
  %5 = call noundef i64 @_ZN4llvm3sys15getSwappedBytesEm(i64 noundef %4)
  %6 = load ptr, ptr %2, align 8
  store i64 %5, ptr %6, align 8
  ret void
}

; Function Attrs: mustprogress nounwind uwtable
define linkonce_odr hidden noundef i64 @_ZN4llvm7support6endian9byte_swapImEET_S3_NS_10endiannessE(i64 noundef %0, i32 noundef %1) #1 comdat {
  %3 = alloca i64, align 8
  %4 = alloca i32, align 4
  store i64 %0, ptr %3, align 8
  store i32 %1, ptr %4, align 4
  %5 = load i32, ptr %4, align 4
  %6 = icmp ne i32 %5, 1
  br i1 %6, label %7, label %8

7:                                                ; preds = %2
  call void @_ZN4llvm3sys13swapByteOrderImEEvRT_(ptr noundef nonnull align 8 dereferenceable(8) %3)
  br label %8

8:                                                ; preds = %7, %2
  %9 = load i64, ptr %3, align 8
  ret i64 %9
}

; Function Attrs: mustprogress nounwind uwtable
define linkonce_odr hidden noundef i64 @_ZN4llvm7support6endian4readImLm1EEET_PKvNS_10endiannessE(ptr noundef %0, i32 noundef %1) #1 comdat {
  %3 = alloca ptr, align 8
  %4 = alloca i32, align 4
  %5 = alloca i64, align 8
  store ptr %0, ptr %3, align 8
  store i32 %1, ptr %4, align 4
  %6 = load ptr, ptr %3, align 8
  call void @llvm.assume(i1 true) [ "align"(ptr %6, i64 1) ]
  call void @llvm.memcpy.p0.p0.i64(ptr align 8 %5, ptr align 1 %6, i64 8, i1 false)
  %7 = load i64, ptr %5, align 8
  %8 = load i32, ptr %4, align 4
  %9 = call noundef i64 @_ZN4llvm7support6endian9byte_swapImEET_S3_NS_10endiannessE(i64 noundef %7, i32 noundef %8)
  ret i64 %9
}

; Function Attrs: mustprogress nounwind uwtable
define linkonce_odr hidden noundef i64 @_ZN4llvm7support6endian4readImLNS_10endiannessE1ELm1EEET_PKv(ptr noundef %0) #1 comdat {
  %2 = alloca ptr, align 8
  store ptr %0, ptr %2, align 8
  %3 = load ptr, ptr %2, align 8
  %4 = call noundef i64 @_ZN4llvm7support6endian4readImLm1EEET_PKvNS_10endiannessE(ptr noundef %3, i32 noundef 1)
  ret i64 %4
}

; Function Attrs: mustprogress nounwind uwtable
define linkonce_odr hidden noundef i64 @_ZNK4llvm7support6detail31packed_endian_specific_integralImLNS_10endiannessE1ELm1ELm1EEcvmEv(ptr noundef nonnull align 1 dereferenceable(8) %0) #1 comdat align 2 {
  %2 = alloca ptr, align 8
  store ptr %0, ptr %2, align 8
  %3 = load ptr, ptr %2, align 8
  %4 = getelementptr inbounds nuw %"struct.llvm::support::detail::packed_endian_specific_integral", ptr %3, i32 0, i32 0
  %5 = getelementptr inbounds nuw %struct.anon.736, ptr %4, i32 0, i32 0
  %6 = getelementptr inbounds [8 x i8], ptr %5, i64 0, i64 0
  %7 = call noundef i64 @_ZN4llvm7support6endian4readImLNS_10endiannessE1ELm1EEET_PKv(ptr noundef %6)
  ret i64 %7
}

; Function Attrs: mustprogress nounwind uwtable
define linkonce_odr hidden noundef ptr @_ZNSt14__array_traitsIhLm16EE6_S_ptrERA16_Kh(ptr noundef nonnull align 1 dereferenceable(16) %0) #1 comdat align 2 {
  %2 = alloca ptr, align 8
  store ptr %0, ptr %2, align 8
  %3 = load ptr, ptr %2, align 8
  %4 = getelementptr inbounds [16 x i8], ptr %3, i64 0, i64 0
  ret ptr %4
}

; Function Attrs: mustprogress nounwind uwtable
define linkonce_odr hidden noundef i64 @_ZN4llvm7support6endian4readImLNS_10endiannessE1EEET_PKv(ptr noundef %0) #1 comdat {
  %2 = alloca ptr, align 8
  store ptr %0, ptr %2, align 8
  %3 = load ptr, ptr %2, align 8
  %4 = call noundef i64 @_ZNK4llvm7support6detail31packed_endian_specific_integralImLNS_10endiannessE1ELm1ELm1EEcvmEv(ptr noundef nonnull align 1 dereferenceable(8) %3)
  ret i64 %4
}

; Function Attrs: mustprogress nounwind uwtable
define linkonce_odr hidden noundef ptr @_ZNKSt5arrayIhLm16EE4dataEv(ptr noundef nonnull align 1 dereferenceable(16) %0) #1 comdat align 2 {
  %2 = alloca ptr, align 8
  store ptr %0, ptr %2, align 8
  %3 = load ptr, ptr %2, align 8
  %4 = getelementptr inbounds nuw %"struct.std::array", ptr %3, i32 0, i32 0
  %5 = call noundef ptr @_ZNSt14__array_traitsIhLm16EE6_S_ptrERA16_Kh(ptr noundef nonnull align 1 dereferenceable(16) %4) #2
  ret ptr %5
}

; Function Attrs: mustprogress nounwind uwtable
define linkonce_odr hidden noundef i64 @_ZNK4llvm3MD59MD5Result3lowEv(ptr noundef nonnull align 1 dereferenceable(16) %0) #1 comdat align 2 {
  %2 = alloca ptr, align 8
  store ptr %0, ptr %2, align 8
  %3 = load ptr, ptr %2, align 8
  %4 = call noundef ptr @_ZNKSt5arrayIhLm16EE4dataEv(ptr noundef nonnull align 1 dereferenceable(16) %3) #2
  %5 = call noundef i64 @_ZN4llvm7support6endian4readImLNS_10endiannessE1EEET_PKv(ptr noundef %4)
  ret i64 %5
}

; Function Attrs: mustprogress nounwind uwtable
define linkonce_odr hidden noundef i64 @_ZN4llvm7MD5HashENS_9StringRefE(ptr %0, i64 %1) #1 comdat {
  %3 = alloca %"class.llvm::StringRef", align 8
  %4 = alloca %"class.llvm::MD5", align 4
  %5 = alloca %"class.llvm::StringRef", align 8
  %6 = alloca %"struct.llvm::MD5::MD5Result", align 1
  %7 = getelementptr inbounds nuw { ptr, i64 }, ptr %3, i32 0, i32 0
  store ptr %0, ptr %7, align 8
  %8 = getelementptr inbounds nuw { ptr, i64 }, ptr %3, i32 0, i32 1
  store i64 %1, ptr %8, align 8
  call void @_ZN4llvm3MD5C1Ev(ptr noundef nonnull align 4 dereferenceable(152) %4)
  call void @llvm.memcpy.p0.p0.i64(ptr align 8 %5, ptr align 8 %3, i64 16, i1 false)
  %9 = getelementptr inbounds nuw { ptr, i64 }, ptr %5, i32 0, i32 0
  %10 = load ptr, ptr %9, align 8
  %11 = getelementptr inbounds nuw { ptr, i64 }, ptr %5, i32 0, i32 1
  %12 = load i64, ptr %11, align 8
  call void @_ZN4llvm3MD56updateENS_9StringRefE(ptr noundef nonnull align 4 dereferenceable(152) %4, ptr %10, i64 %12)
  call void @_ZN4llvm3MD55finalERNS0_9MD5ResultE(ptr noundef nonnull align 4 dereferenceable(152) %4, ptr noundef nonnull align 1 dereferenceable(16) %6)
  %13 = call noundef i64 @_ZNK4llvm3MD59MD5Result3lowEv(ptr noundef nonnull align 1 dereferenceable(16) %6)
  ret i64 %13
}

; Function Attrs: mustprogress nounwind uwtable
define linkonce_odr hidden void @_ZN4llvm9StringRefC2EPKcm(ptr noundef nonnull align 8 dereferenceable(16) %0, ptr noundef %1, i64 noundef %2) unnamed_addr #1 comdat align 2 {
  %4 = alloca ptr, align 8
  %5 = alloca ptr, align 8
  %6 = alloca i64, align 8
  store ptr %0, ptr %4, align 8
  store ptr %1, ptr %5, align 8
  store i64 %2, ptr %6, align 8
  %7 = load ptr, ptr %4, align 8
  %8 = getelementptr inbounds nuw %"class.llvm::StringRef", ptr %7, i32 0, i32 0
  %9 = load ptr, ptr %5, align 8
  store ptr %9, ptr %8, align 8
  %10 = getelementptr inbounds nuw %"class.llvm::StringRef", ptr %7, i32 0, i32 1
  %11 = load i64, ptr %6, align 8
  store i64 %11, ptr %10, align 8
  ret void
}

; Function Attrs: mustprogress nounwind uwtable
define linkonce_odr hidden { ptr, i64 } @_ZNK4llvm10sampleprof13SampleContext11getFunctionEv(ptr noundef nonnull align 8 dereferenceable(40) %0) #1 comdat align 2 {
  %2 = alloca %"class.llvm::sampleprof::FunctionId", align 8
  %3 = alloca ptr, align 8
  store ptr %0, ptr %3, align 8
  %4 = load ptr, ptr %3, align 8
  %5 = getelementptr inbounds nuw %"class.llvm::sampleprof::SampleContext", ptr %4, i32 0, i32 0
  call void @llvm.memcpy.p0.p0.i64(ptr align 8 %2, ptr align 8 %5, i64 16, i1 false)
  %6 = load { ptr, i64 }, ptr %2, align 8
  ret { ptr, i64 } %6
}

; Function Attrs: mustprogress nounwind uwtable
define linkonce_odr hidden noundef i64 @_ZNK4llvm10sampleprof10FunctionId11getHashCodeEv(ptr noundef nonnull align 8 dereferenceable(16) %0) #1 comdat align 2 {
  %2 = alloca i64, align 8
  %3 = alloca ptr, align 8
  %4 = alloca %"class.llvm::StringRef", align 8
  store ptr %0, ptr %3, align 8
  %5 = load ptr, ptr %3, align 8
  %6 = getelementptr inbounds nuw %"class.llvm::sampleprof::FunctionId", ptr %5, i32 0, i32 0
  %7 = load ptr, ptr %6, align 8
  %8 = icmp ne ptr %7, null
  br i1 %8, label %9, label %19

9:                                                ; preds = %1
  %10 = getelementptr inbounds nuw %"class.llvm::sampleprof::FunctionId", ptr %5, i32 0, i32 0
  %11 = load ptr, ptr %10, align 8
  %12 = getelementptr inbounds nuw %"class.llvm::sampleprof::FunctionId", ptr %5, i32 0, i32 1
  %13 = load i64, ptr %12, align 8
  call void @_ZN4llvm9StringRefC2EPKcm(ptr noundef nonnull align 8 dereferenceable(16) %4, ptr noundef %11, i64 noundef %13)
  %14 = getelementptr inbounds nuw { ptr, i64 }, ptr %4, i32 0, i32 0
  %15 = load ptr, ptr %14, align 8
  %16 = getelementptr inbounds nuw { ptr, i64 }, ptr %4, i32 0, i32 1
  %17 = load i64, ptr %16, align 8
  %18 = call noundef i64 @_ZN4llvm7MD5HashENS_9StringRefE(ptr %15, i64 %17)
  store i64 %18, ptr %2, align 8
  br label %22

19:                                               ; preds = %1
  %20 = getelementptr inbounds nuw %"class.llvm::sampleprof::FunctionId", ptr %5, i32 0, i32 1
  %21 = load i64, ptr %20, align 8
  store i64 %21, ptr %2, align 8
  br label %22

22:                                               ; preds = %19, %9
  %23 = load i64, ptr %2, align 8
  ret i64 %23
}

; Function Attrs: mustprogress nounwind uwtable
define linkonce_odr hidden { ptr, i64 } @_ZNK4llvm10sampleprof15FunctionSamples11getFunctionEv(ptr noundef nonnull align 8 dereferenceable(176) %0) #1 comdat align 2 {
  %2 = alloca %"class.llvm::sampleprof::FunctionId", align 8
  %3 = alloca ptr, align 8
  store ptr %0, ptr %3, align 8
  %4 = load ptr, ptr %3, align 8
  %5 = getelementptr inbounds nuw %"class.llvm::sampleprof::FunctionSamples", ptr %4, i32 0, i32 2
  %6 = call { ptr, i64 } @_ZNK4llvm10sampleprof13SampleContext11getFunctionEv(ptr noundef nonnull align 8 dereferenceable(40) %5)
  %7 = getelementptr inbounds nuw { ptr, i64 }, ptr %2, i32 0, i32 0
  %8 = extractvalue { ptr, i64 } %6, 0
  store ptr %8, ptr %7, align 8
  %9 = getelementptr inbounds nuw { ptr, i64 }, ptr %2, i32 0, i32 1
  %10 = extractvalue { ptr, i64 } %6, 1
  store i64 %10, ptr %9, align 8
  %11 = load { ptr, i64 }, ptr %2, align 8
  ret { ptr, i64 } %11
}

; Function Attrs: mustprogress nounwind uwtable
define linkonce_odr hidden noundef i64 @_ZNKSt8_Rb_treeIN4llvm10sampleprof12LineLocationESt4pairIKS2_NS1_12SampleRecordEESt10_Select1stIS6_ESt4lessIS2_ESaIS6_EE4sizeEv(ptr noundef nonnull align 8 dereferenceable(48) %0) #1 comdat align 2 {
  %2 = alloca ptr, align 8
  store ptr %0, ptr %2, align 8
  %3 = load ptr, ptr %2, align 8
  %4 = getelementptr inbounds nuw %"class.std::_Rb_tree.493", ptr %3, i32 0, i32 0
  %5 = getelementptr inbounds i8, ptr %4, i64 8
  %6 = getelementptr inbounds nuw %"struct.std::_Rb_tree_header", ptr %5, i32 0, i32 1
  %7 = load i64, ptr %6, align 8
  ret i64 %7
}

; Function Attrs: mustprogress nounwind uwtable
define linkonce_odr hidden noundef i64 @_ZNK4llvm10sampleprof15FunctionSamples7getGUIDEv(ptr noundef nonnull align 8 dereferenceable(176) %0) #1 comdat align 2 {
  %2 = alloca ptr, align 8
  %3 = alloca %"class.llvm::sampleprof::FunctionId", align 8
  store ptr %0, ptr %2, align 8
  %4 = load ptr, ptr %2, align 8
  %5 = call { ptr, i64 } @_ZNK4llvm10sampleprof15FunctionSamples11getFunctionEv(ptr noundef nonnull align 8 dereferenceable(176) %4)
  %6 = getelementptr inbounds nuw { ptr, i64 }, ptr %3, i32 0, i32 0
  %7 = extractvalue { ptr, i64 } %5, 0
  store ptr %7, ptr %6, align 8
  %8 = getelementptr inbounds nuw { ptr, i64 }, ptr %3, i32 0, i32 1
  %9 = extractvalue { ptr, i64 } %5, 1
  store i64 %9, ptr %8, align 8
  %10 = call noundef i64 @_ZNK4llvm10sampleprof10FunctionId11getHashCodeEv(ptr noundef nonnull align 8 dereferenceable(16) %3)
  ret i64 %10
}

; Function Attrs: mustprogress nounwind uwtable
define linkonce_odr hidden noundef i64 @_ZNKSt3mapIN4llvm10sampleprof12LineLocationENS1_12SampleRecordESt4lessIS2_ESaISt4pairIKS2_S3_EEE4sizeEv(ptr noundef nonnull align 8 dereferenceable(48) %0) #1 comdat align 2 {
  %2 = alloca ptr, align 8
  store ptr %0, ptr %2, align 8
  %3 = load ptr, ptr %2, align 8
  %4 = getelementptr inbounds nuw %"class.std::map.492", ptr %3, i32 0, i32 0
  %5 = call noundef i64 @_ZNKSt8_Rb_treeIN4llvm10sampleprof12LineLocationESt4pairIKS2_NS1_12SampleRecordEESt10_Select1stIS6_ESt4lessIS2_ESaIS6_EE4sizeEv(ptr noundef nonnull align 8 dereferenceable(48) %4) #2
  ret i64 %5
}

; Function Attrs: mustprogress nounwind uwtable
define linkonce_odr hidden noundef nonnull align 8 dereferenceable(48) ptr @_ZNK4llvm10sampleprof15FunctionSamples14getBodySamplesEv(ptr noundef nonnull align 8 dereferenceable(176) %0) #1 comdat align 2 {
  %2 = alloca ptr, align 8
  store ptr %0, ptr %2, align 8
  %3 = load ptr, ptr %2, align 8
  %4 = getelementptr inbounds nuw %"class.llvm::sampleprof::FunctionSamples", ptr %3, i32 0, i32 5
  ret ptr %4
}

; Function Attrs: mustprogress nounwind uwtable
define internal noundef zeroext i1 @_ZN12_GLOBAL__N_117CandidateComparerclERKNS_15InlineCandidateES3_(ptr noundef nonnull align 1 dereferenceable(1) %0, ptr noundef nonnull align 8 dereferenceable(32) %1, ptr noundef nonnull align 8 dereferenceable(32) %2) #1 align 2 {
  %4 = alloca i1, align 1
  %5 = alloca ptr, align 8
  %6 = alloca ptr, align 8
  %7 = alloca ptr, align 8
  %8 = alloca ptr, align 8
  %9 = alloca ptr, align 8
  store ptr %0, ptr %5, align 8
  store ptr %1, ptr %6, align 8
  store ptr %2, ptr %7, align 8
  %10 = load ptr, ptr %6, align 8
  %11 = getelementptr inbounds nuw %"struct.(anonymous namespace)::InlineCandidate", ptr %10, i32 0, i32 2
  %12 = load i64, ptr %11, align 8
  %13 = load ptr, ptr %7, align 8
  %14 = getelementptr inbounds nuw %"struct.(anonymous namespace)::InlineCandidate", ptr %13, i32 0, i32 2
  %15 = load i64, ptr %14, align 8
  %16 = icmp ne i64 %12, %15
  br i1 %16, label %17, label %25

17:                                               ; preds = %3
  %18 = load ptr, ptr %6, align 8
  %19 = getelementptr inbounds nuw %"struct.(anonymous namespace)::InlineCandidate", ptr %18, i32 0, i32 2
  %20 = load i64, ptr %19, align 8
  %21 = load ptr, ptr %7, align 8
  %22 = getelementptr inbounds nuw %"struct.(anonymous namespace)::InlineCandidate", ptr %21, i32 0, i32 2
  %23 = load i64, ptr %22, align 8
  %24 = icmp ult i64 %20, %23
  store i1 %24, ptr %4, align 1
  br label %62

25:                                               ; preds = %3
  %26 = load ptr, ptr %6, align 8
  %27 = getelementptr inbounds nuw %"struct.(anonymous namespace)::InlineCandidate", ptr %26, i32 0, i32 1
  %28 = load ptr, ptr %27, align 8
  store ptr %28, ptr %8, align 8
  %29 = load ptr, ptr %7, align 8
  %30 = getelementptr inbounds nuw %"struct.(anonymous namespace)::InlineCandidate", ptr %29, i32 0, i32 1
  %31 = load ptr, ptr %30, align 8
  store ptr %31, ptr %9, align 8
  %32 = load ptr, ptr %8, align 8
  %33 = icmp ne ptr %32, null
  br i1 %33, label %34, label %37

34:                                               ; preds = %25
  %35 = load ptr, ptr %9, align 8
  %36 = icmp ne ptr %35, null
  br i1 %36, label %40, label %37

37:                                               ; preds = %34, %25
  %38 = load ptr, ptr %8, align 8
  %39 = icmp ne ptr %38, null
  store i1 %39, ptr %4, align 1
  br label %62

40:                                               ; preds = %34
  %41 = load ptr, ptr %8, align 8
  %42 = call noundef nonnull align 8 dereferenceable(48) ptr @_ZNK4llvm10sampleprof15FunctionSamples14getBodySamplesEv(ptr noundef nonnull align 8 dereferenceable(176) %41)
  %43 = call noundef i64 @_ZNKSt3mapIN4llvm10sampleprof12LineLocationENS1_12SampleRecordESt4lessIS2_ESaISt4pairIKS2_S3_EEE4sizeEv(ptr noundef nonnull align 8 dereferenceable(48) %42) #2
  %44 = load ptr, ptr %9, align 8
  %45 = call noundef nonnull align 8 dereferenceable(48) ptr @_ZNK4llvm10sampleprof15FunctionSamples14getBodySamplesEv(ptr noundef nonnull align 8 dereferenceable(176) %44)
  %46 = call noundef i64 @_ZNKSt3mapIN4llvm10sampleprof12LineLocationENS1_12SampleRecordESt4lessIS2_ESaISt4pairIKS2_S3_EEE4sizeEv(ptr noundef nonnull align 8 dereferenceable(48) %45) #2
  %47 = icmp ne i64 %43, %46
  br i1 %47, label %48, label %56

48:                                               ; preds = %40
  %49 = load ptr, ptr %8, align 8
  %50 = call noundef nonnull align 8 dereferenceable(48) ptr @_ZNK4llvm10sampleprof15FunctionSamples14getBodySamplesEv(ptr noundef nonnull align 8 dereferenceable(176) %49)
  %51 = call noundef i64 @_ZNKSt3mapIN4llvm10sampleprof12LineLocationENS1_12SampleRecordESt4lessIS2_ESaISt4pairIKS2_S3_EEE4sizeEv(ptr noundef nonnull align 8 dereferenceable(48) %50) #2
  %52 = load ptr, ptr %9, align 8
  %53 = call noundef nonnull align 8 dereferenceable(48) ptr @_ZNK4llvm10sampleprof15FunctionSamples14getBodySamplesEv(ptr noundef nonnull align 8 dereferenceable(176) %52)
  %54 = call noundef i64 @_ZNKSt3mapIN4llvm10sampleprof12LineLocationENS1_12SampleRecordESt4lessIS2_ESaISt4pairIKS2_S3_EEE4sizeEv(ptr noundef nonnull align 8 dereferenceable(48) %53) #2
  %55 = icmp ugt i64 %51, %54
  store i1 %55, ptr %4, align 1
  br label %62

56:                                               ; preds = %40
  %57 = load ptr, ptr %8, align 8
  %58 = call noundef i64 @_ZNK4llvm10sampleprof15FunctionSamples7getGUIDEv(ptr noundef nonnull align 8 dereferenceable(176) %57)
  %59 = load ptr, ptr %9, align 8
  %60 = call noundef i64 @_ZNK4llvm10sampleprof15FunctionSamples7getGUIDEv(ptr noundef nonnull align 8 dereferenceable(176) %59)
  %61 = icmp ult i64 %58, %60
  store i1 %61, ptr %4, align 1
  br label %62

62:                                               ; preds = %56, %48, %37, %17
  %63 = load i1, ptr %4, align 1
  ret i1 %63
}