; Function Attrs: mustprogress nounwind uwtable
define internal fastcc noundef zeroext i1 @_ZN12_GLOBAL__N_117CandidateComparerclERKNS_15InlineCandidateES3_(ptr readonly %.8.val, i64 %.16.val, ptr readonly %.8.val1, i64 %.16.val3) unnamed_addr #0 align 2 {
  %1 = alloca %"class.llvm::MD5", align 4
  %2 = alloca %"struct.llvm::MD5::MD5Result", align 8
  %3 = alloca %"class.llvm::MD5", align 4
  %4 = alloca %"struct.llvm::MD5::MD5Result", align 8
  %.not = icmp eq i64 %.16.val, %.16.val3
  br i1 %.not, label %7, label %5

5:                                                ; preds = %0
  %6 = icmp ult i64 %.16.val, %.16.val3
  br label %23

7:                                                ; preds = %0
  %8 = icmp ne ptr %.8.val, null
  %9 = icmp ne ptr %.8.val1, null
  %or.cond = select i1 %8, i1 %9, i1 false
  br i1 %or.cond, label %10, label %23

10:                                               ; preds = %7
  %11 = getelementptr inbounds nuw i8, ptr %.8.val, i64 112
  %12 = load i64, ptr %11, align 8
  %13 = getelementptr inbounds nuw i8, ptr %.8.val1, i64 112
  %14 = load i64, ptr %13, align 8
  %.not21 = icmp eq i64 %12, %14
  br i1 %.not21, label %17, label %15

15:                                               ; preds = %10
  %16 = icmp ugt i64 %12, %14
  br label %23

17:                                               ; preds = %10
  %18 = getelementptr inbounds nuw i8, ptr %.8.val, i64 16
  %.sroa.0.0.copyload.i.i.i = load ptr, ptr %18, align 8
  %.sroa.2.0..sroa_idx.i.i.i = getelementptr inbounds nuw i8, ptr %.8.val, i64 24
  %.sroa.2.0.copyload.i.i.i = load i64, ptr %.sroa.2.0..sroa_idx.i.i.i, align 8
  %.not.i.i = icmp eq ptr %.sroa.0.0.copyload.i.i.i, null
  br i1 %.not.i.i, label %_ZNK4llvm10sampleprof15FunctionSamples7getGUIDEv.exit, label %19

19:                                               ; preds = %17
  call void @llvm.lifetime.start.p0(i64 152, ptr nonnull %3)
  call void @llvm.lifetime.start.p0(i64 16, ptr nonnull %4)
  call void @_ZN4llvm3MD5C1Ev(ptr noundef nonnull align 4 dereferenceable(152) %3) #22
  call void @_ZN4llvm3MD56updateENS_9StringRefE(ptr noundef nonnull align 4 dereferenceable(152) %3, ptr nonnull %.sroa.0.0.copyload.i.i.i, i64 %.sroa.2.0.copyload.i.i.i) #22
  call void @_ZN4llvm3MD55finalERNS0_9MD5ResultE(ptr noundef nonnull align 4 dereferenceable(152) %3, ptr noundef nonnull align 1 dereferenceable(16) %4) #22
  call void @llvm.assume(i1 true) [ "align"(ptr %4, i64 1) ]
  %.0.copyload.i.i.i.i.i.i.i.i = load i64, ptr %4, align 8
  call void @llvm.lifetime.end.p0(i64 152, ptr nonnull %3)
  call void @llvm.lifetime.end.p0(i64 16, ptr nonnull %4)
  br label %_ZNK4llvm10sampleprof15FunctionSamples7getGUIDEv.exit

_ZNK4llvm10sampleprof15FunctionSamples7getGUIDEv.exit: ; preds = %17, %19
  %.0.i.i = phi i64 [ %.0.copyload.i.i.i.i.i.i.i.i, %19 ], [ %.sroa.2.0.copyload.i.i.i, %17 ]
  %20 = getelementptr inbounds nuw i8, ptr %.8.val1, i64 16
  %.sroa.0.0.copyload.i.i.i22 = load ptr, ptr %20, align 8
  %.sroa.2.0..sroa_idx.i.i.i23 = getelementptr inbounds nuw i8, ptr %.8.val1, i64 24
  %.sroa.2.0.copyload.i.i.i24 = load i64, ptr %.sroa.2.0..sroa_idx.i.i.i23, align 8
  %.not.i.i25 = icmp eq ptr %.sroa.0.0.copyload.i.i.i22, null
  br i1 %.not.i.i25, label %_ZNK4llvm10sampleprof15FunctionSamples7getGUIDEv.exit28, label %21

21:                                               ; preds = %_ZNK4llvm10sampleprof15FunctionSamples7getGUIDEv.exit
  call void @llvm.lifetime.start.p0(i64 152, ptr nonnull %1)
  call void @llvm.lifetime.start.p0(i64 16, ptr nonnull %2)
  call void @_ZN4llvm3MD5C1Ev(ptr noundef nonnull align 4 dereferenceable(152) %1) #22
  call void @_ZN4llvm3MD56updateENS_9StringRefE(ptr noundef nonnull align 4 dereferenceable(152) %1, ptr nonnull %.sroa.0.0.copyload.i.i.i22, i64 %.sroa.2.0.copyload.i.i.i24) #22
  call void @_ZN4llvm3MD55finalERNS0_9MD5ResultE(ptr noundef nonnull align 4 dereferenceable(152) %1, ptr noundef nonnull align 1 dereferenceable(16) %2) #22
  call void @llvm.assume(i1 true) [ "align"(ptr %2, i64 1) ]
  %.0.copyload.i.i.i.i.i.i.i.i26 = load i64, ptr %2, align 8
  call void @llvm.lifetime.end.p0(i64 152, ptr nonnull %1)
  call void @llvm.lifetime.end.p0(i64 16, ptr nonnull %2)
  br label %_ZNK4llvm10sampleprof15FunctionSamples7getGUIDEv.exit28

_ZNK4llvm10sampleprof15FunctionSamples7getGUIDEv.exit28: ; preds = %_ZNK4llvm10sampleprof15FunctionSamples7getGUIDEv.exit, %21
  %.0.i.i27 = phi i64 [ %.0.copyload.i.i.i.i.i.i.i.i26, %21 ], [ %.sroa.2.0.copyload.i.i.i24, %_ZNK4llvm10sampleprof15FunctionSamples7getGUIDEv.exit ]
  %22 = icmp ult i64 %.0.i.i, %.0.i.i27
  br label %23

23:                                               ; preds = %7, %_ZNK4llvm10sampleprof15FunctionSamples7getGUIDEv.exit28, %15, %5
  %.0 = phi i1 [ %6, %5 ], [ %16, %15 ], [ %22, %_ZNK4llvm10sampleprof15FunctionSamples7getGUIDEv.exit28 ], [ %8, %7 ]
  ret i1 %.0
}